#include <math.h>
#include <stdio.h>
#include <stdlib.h>
#include <string.h>

int main()
{
 char a[501],b[501][5];
 int c[501];
 int n,i,l,j,p,k;
 scanf("%d\n",&n);
 gets(a);
 l=strlen(a);
 for(i=0;i<l;i++)
  c[i]=1;
 for(i=0;i<l;i++)
 {
  for(j=0;j<n;j++)
  {
   b[i][j]=a[i+j];
  }
  b[i][j]='\0';
  for(p=0;p<i&&strcmp(b[p],b[i])!=0;p++) {}
  if(p<i) c[p]++;
 }
 k=c[0];
 for(i=0;i<l;i++)
 {
  if(c[i]>k) k=c[i];
 }
 if(k==1) printf("NO");
 
 else
 {printf("%d\n",k);
 for(i=0;i<l;i++)
 {
  if(c[i]==k)
  {printf("%s\n",b[i]);}
 }}
 return 0;
}