; ModuleID = '51/288.c'
source_filename = "51/288.c"
target datalayout = "e-m:e-p270:32:32-p271:32:32-p272:64:64-i64:64-f80:128-n8:16:32:64-S128"
target triple = "x86_64-pc-linux-gnu"

@.str = private unnamed_addr constant [4 x i8] c"%d\0A\00", align 1
@.str.1 = private unnamed_addr constant [3 x i8] c"NO\00", align 1
@.str.2 = private unnamed_addr constant [4 x i8] c"%s\0A\00", align 1

; Function Attrs: noinline nounwind uwtable
define dso_local i32 @main() #0 {
  %1 = alloca i32, align 4
  %2 = alloca [501 x i8], align 16
  %3 = alloca [501 x [5 x i8]], align 16
  %4 = alloca [501 x i32], align 16
  %5 = alloca i32, align 4
  %6 = alloca i32, align 4
  %7 = alloca i32, align 4
  %8 = alloca i32, align 4
  %9 = alloca i32, align 4
  %10 = alloca i32, align 4
  store i32 0, i32* %1, align 4
  %11 = call i32 (i8*, ...) @__isoc99_scanf(i8* getelementptr inbounds ([4 x i8], [4 x i8]* @.str, i64 0, i64 0), i32* %5)
  %12 = getelementptr inbounds [501 x i8], [501 x i8]* %2, i64 0, i64 0
  %13 = call i32 (i8*, ...) bitcast (i32 (...)* @gets to i32 (i8*, ...)*)(i8* %12)
  %14 = getelementptr inbounds [501 x i8], [501 x i8]* %2, i64 0, i64 0
  %15 = call i64 @strlen(i8* %14) #3
  %16 = trunc i64 %15 to i32
  store i32 %16, i32* %7, align 4
  store i32 0, i32* %6, align 4
  br label %17

17:                                               ; preds = %25, %0
  %18 = load i32, i32* %6, align 4
  %19 = load i32, i32* %7, align 4
  %20 = icmp slt i32 %18, %19
  br i1 %20, label %21, label %28

21:                                               ; preds = %17
  %22 = load i32, i32* %6, align 4
  %23 = sext i32 %22 to i64
  %24 = getelementptr inbounds [501 x i32], [501 x i32]* %4, i64 0, i64 %23
  store i32 1, i32* %24, align 4
  br label %25

25:                                               ; preds = %21
  %26 = load i32, i32* %6, align 4
  %27 = add nsw i32 %26, 1
  store i32 %27, i32* %6, align 4
  br label %17

28:                                               ; preds = %17
  store i32 0, i32* %6, align 4
  br label %29

29:                                               ; preds = %93, %28
  %30 = load i32, i32* %6, align 4
  %31 = load i32, i32* %7, align 4
  %32 = icmp slt i32 %30, %31
  br i1 %32, label %33, label %96

33:                                               ; preds = %29
  store i32 0, i32* %8, align 4
  br label %34

34:                                               ; preds = %51, %33
  %35 = load i32, i32* %8, align 4
  %36 = load i32, i32* %5, align 4
  %37 = icmp slt i32 %35, %36
  br i1 %37, label %38, label %54

38:                                               ; preds = %34
  %39 = load i32, i32* %6, align 4
  %40 = load i32, i32* %8, align 4
  %41 = add nsw i32 %39, %40
  %42 = sext i32 %41 to i64
  %43 = getelementptr inbounds [501 x i8], [501 x i8]* %2, i64 0, i64 %42
  %44 = load i8, i8* %43, align 1
  %45 = load i32, i32* %6, align 4
  %46 = sext i32 %45 to i64
  %47 = getelementptr inbounds [501 x [5 x i8]], [501 x [5 x i8]]* %3, i64 0, i64 %46
  %48 = load i32, i32* %8, align 4
  %49 = sext i32 %48 to i64
  %50 = getelementptr inbounds [5 x i8], [5 x i8]* %47, i64 0, i64 %49
  store i8 %44, i8* %50, align 1
  br label %51

51:                                               ; preds = %38
  %52 = load i32, i32* %8, align 4
  %53 = add nsw i32 %52, 1
  store i32 %53, i32* %8, align 4
  br label %34

54:                                               ; preds = %34
  %55 = load i32, i32* %6, align 4
  %56 = sext i32 %55 to i64
  %57 = getelementptr inbounds [501 x [5 x i8]], [501 x [5 x i8]]* %3, i64 0, i64 %56
  %58 = load i32, i32* %8, align 4
  %59 = sext i32 %58 to i64
  %60 = getelementptr inbounds [5 x i8], [5 x i8]* %57, i64 0, i64 %59
  store i8 0, i8* %60, align 1
  store i32 0, i32* %9, align 4
  br label %61

61:                                               ; preds = %79, %54
  %62 = load i32, i32* %9, align 4
  %63 = load i32, i32* %6, align 4
  %64 = icmp slt i32 %62, %63
  br i1 %64, label %65, label %76

65:                                               ; preds = %61
  %66 = load i32, i32* %9, align 4
  %67 = sext i32 %66 to i64
  %68 = getelementptr inbounds [501 x [5 x i8]], [501 x [5 x i8]]* %3, i64 0, i64 %67
  %69 = getelementptr inbounds [5 x i8], [5 x i8]* %68, i64 0, i64 0
  %70 = load i32, i32* %6, align 4
  %71 = sext i32 %70 to i64
  %72 = getelementptr inbounds [501 x [5 x i8]], [501 x [5 x i8]]* %3, i64 0, i64 %71
  %73 = getelementptr inbounds [5 x i8], [5 x i8]* %72, i64 0, i64 0
  %74 = call i32 @strcmp(i8* %69, i8* %73) #3
  %75 = icmp ne i32 %74, 0
  br label %76

76:                                               ; preds = %65, %61
  %77 = phi i1 [ false, %61 ], [ %75, %65 ]
  br i1 %77, label %78, label %82

78:                                               ; preds = %76
  br label %79

79:                                               ; preds = %78
  %80 = load i32, i32* %9, align 4
  %81 = add nsw i32 %80, 1
  store i32 %81, i32* %9, align 4
  br label %61

82:                                               ; preds = %76
  %83 = load i32, i32* %9, align 4
  %84 = load i32, i32* %6, align 4
  %85 = icmp slt i32 %83, %84
  br i1 %85, label %86, label %92

86:                                               ; preds = %82
  %87 = load i32, i32* %9, align 4
  %88 = sext i32 %87 to i64
  %89 = getelementptr inbounds [501 x i32], [501 x i32]* %4, i64 0, i64 %88
  %90 = load i32, i32* %89, align 4
  %91 = add nsw i32 %90, 1
  store i32 %91, i32* %89, align 4
  br label %92

92:                                               ; preds = %86, %82
  br label %93

93:                                               ; preds = %92
  %94 = load i32, i32* %6, align 4
  %95 = add nsw i32 %94, 1
  store i32 %95, i32* %6, align 4
  br label %29

96:                                               ; preds = %29
  %97 = getelementptr inbounds [501 x i32], [501 x i32]* %4, i64 0, i64 0
  %98 = load i32, i32* %97, align 16
  store i32 %98, i32* %10, align 4
  store i32 0, i32* %6, align 4
  br label %99

99:                                               ; preds = %116, %96
  %100 = load i32, i32* %6, align 4
  %101 = load i32, i32* %7, align 4
  %102 = icmp slt i32 %100, %101
  br i1 %102, label %103, label %119

103:                                              ; preds = %99
  %104 = load i32, i32* %6, align 4
  %105 = sext i32 %104 to i64
  %106 = getelementptr inbounds [501 x i32], [501 x i32]* %4, i64 0, i64 %105
  %107 = load i32, i32* %106, align 4
  %108 = load i32, i32* %10, align 4
  %109 = icmp sgt i32 %107, %108
  br i1 %109, label %110, label %115

110:                                              ; preds = %103
  %111 = load i32, i32* %6, align 4
  %112 = sext i32 %111 to i64
  %113 = getelementptr inbounds [501 x i32], [501 x i32]* %4, i64 0, i64 %112
  %114 = load i32, i32* %113, align 4
  store i32 %114, i32* %10, align 4
  br label %115

115:                                              ; preds = %110, %103
  br label %116

116:                                              ; preds = %115
  %117 = load i32, i32* %6, align 4
  %118 = add nsw i32 %117, 1
  store i32 %118, i32* %6, align 4
  br label %99

119:                                              ; preds = %99
  %120 = load i32, i32* %10, align 4
  %121 = icmp eq i32 %120, 1
  br i1 %121, label %122, label %124

122:                                              ; preds = %119
  %123 = call i32 (i8*, ...) @printf(i8* getelementptr inbounds ([3 x i8], [3 x i8]* @.str.1, i64 0, i64 0))
  br label %149

124:                                              ; preds = %119
  %125 = load i32, i32* %10, align 4
  %126 = call i32 (i8*, ...) @printf(i8* getelementptr inbounds ([4 x i8], [4 x i8]* @.str, i64 0, i64 0), i32 %125)
  store i32 0, i32* %6, align 4
  br label %127

127:                                              ; preds = %145, %124
  %128 = load i32, i32* %6, align 4
  %129 = load i32, i32* %7, align 4
  %130 = icmp slt i32 %128, %129
  br i1 %130, label %131, label %148

131:                                              ; preds = %127
  %132 = load i32, i32* %6, align 4
  %133 = sext i32 %132 to i64
  %134 = getelementptr inbounds [501 x i32], [501 x i32]* %4, i64 0, i64 %133
  %135 = load i32, i32* %134, align 4
  %136 = load i32, i32* %10, align 4
  %137 = icmp eq i32 %135, %136
  br i1 %137, label %138, label %144

138:                                              ; preds = %131
  %139 = load i32, i32* %6, align 4
  %140 = sext i32 %139 to i64
  %141 = getelementptr inbounds [501 x [5 x i8]], [501 x [5 x i8]]* %3, i64 0, i64 %140
  %142 = getelementptr inbounds [5 x i8], [5 x i8]* %141, i64 0, i64 0
  %143 = call i32 (i8*, ...) @printf(i8* getelementptr inbounds ([4 x i8], [4 x i8]* @.str.2, i64 0, i64 0), i8* %142)
  br label %144

144:                                              ; preds = %138, %131
  br label %145

145:                                              ; preds = %144
  %146 = load i32, i32* %6, align 4
  %147 = add nsw i32 %146, 1
  store i32 %147, i32* %6, align 4
  br label %127

148:                                              ; preds = %127
  br label %149

149:                                              ; preds = %148, %122
  ret i32 0
}

declare dso_local i32 @__isoc99_scanf(i8*, ...) #1

declare dso_local i32 @gets(...) #1

; Function Attrs: nounwind readonly
declare dso_local i64 @strlen(i8*) #2

; Function Attrs: nounwind readonly
declare dso_local i32 @strcmp(i8*, i8*) #2

declare dso_local i32 @printf(i8*, ...) #1


!llvm.module.flags = !{!0}
!llvm.ident = !{!1}

!0 = !{i32 1, !"wchar_size", i32 4}
!1 = !{!"clang version 10.0.0-4ubuntu1 "}
